target datalayout = "e-m:e-p270:32:32-p271:32:32-p272:64:64-i64:64-i128:128-f80:128-n8:16:32:64-S128"
target triple = "x86_64-pc-linux-gnu"

%union.pthread_mutex_t = type { %struct.__pthread_mutex_s }
%struct.__pthread_mutex_s = type { i32, i32, i32, i32, i32, i16, i16, %struct.__pthread_internal_list }
%struct.__pthread_internal_list = type { ptr, ptr }
%struct.slurm_bb_ops = type { ptr, ptr, ptr, ptr, ptr, ptr, ptr, ptr, ptr, ptr, ptr, ptr, ptr, ptr, ptr, ptr, ptr, ptr, ptr, ptr }
%struct.timeval = type { i64, i64 }
%struct.buf_t = type { i32, ptr, i32, i32, i8, i8 }

@g_context_lock = internal global %union.pthread_mutex_t zeroinitializer, align 8
@.str.1 = private unnamed_addr constant [29 x i8] c"%s: pthread_mutex_lock(): %m\00", align 1
@g_context_cnt = internal global i32 -1, align 4
@ops = internal global ptr null, align 8
@.str.8 = private unnamed_addr constant [31 x i8] c"%s: pthread_mutex_unlock(): %m\00", align 1
@__func__.bb_g_state_pack = private unnamed_addr constant [16 x i8] c"bb_g_state_pack\00", align 1

; Function Attrs: nounwind uwtable
define dso_local i32 @bb_g_state_pack(i32 noundef %0, ptr noundef %1, i16 noundef zeroext %2) #0 {
  %4 = alloca i32, align 4
  %5 = alloca ptr, align 8
  %6 = alloca i16, align 2
  %7 = alloca %struct.timeval, align 8
  %8 = alloca %struct.timeval, align 8
  %9 = alloca [20 x i8], align 16
  %10 = alloca i64, align 8
  %11 = alloca i32, align 4
  %12 = alloca i32, align 4
  %13 = alloca i32, align 4
  %14 = alloca i32, align 4
  %15 = alloca i32, align 4
  %16 = alloca i32, align 4
  %17 = alloca i32, align 4
  %18 = alloca i32, align 4
  %19 = alloca i32, align 4
  store i32 %0, ptr %4, align 4
  store ptr %1, ptr %5, align 8
  store i16 %2, ptr %6, align 2
  call void @llvm.lifetime.start.p0(i64 16, ptr %7) #7
  call void @llvm.lifetime.start.p0(i64 16, ptr %8) #7
  call void @llvm.lifetime.start.p0(i64 20, ptr %9) #7
  call void @llvm.memset.p0.i64(ptr align 16 %9, i8 0, i64 20, i1 false)
  call void @llvm.lifetime.start.p0(i64 8, ptr %10) #7
  call void @llvm.lifetime.start.p0(i64 4, ptr %11) #7
  call void @llvm.lifetime.start.p0(i64 4, ptr %12) #7
  store i32 0, ptr %12, align 4
  call void @llvm.lifetime.start.p0(i64 4, ptr %13) #7
  call void @llvm.lifetime.start.p0(i64 4, ptr %14) #7
  store i32 0, ptr %14, align 4
  call void @llvm.lifetime.start.p0(i64 4, ptr %15) #7
  call void @llvm.lifetime.start.p0(i64 4, ptr %16) #7
  call void @llvm.lifetime.start.p0(i64 4, ptr %17) #7
  %20 = call i32 @gettimeofday(ptr noundef %7, ptr noundef null) #7
  %21 = load ptr, ptr %5, align 8
  %22 = getelementptr inbounds nuw %struct.buf_t, ptr %21, i32 0, i32 3
  %23 = load i32, ptr %22, align 4
  store i32 %23, ptr %17, align 4
  %24 = load i32, ptr %14, align 4
  %25 = load ptr, ptr %5, align 8
  call void @pack32(i32 noundef %24, ptr noundef %25)
  br label %26

26:                                               ; preds = %3
  call void @llvm.lifetime.start.p0(i64 4, ptr %18) #7
  %27 = call i32 @pthread_mutex_lock(ptr noundef @g_context_lock) #7
  store i32 %27, ptr %18, align 4
  %28 = load i32, ptr %18, align 4
  %29 = icmp ne i32 %28, 0
  br i1 %29, label %30, label %33

30:                                               ; preds = %26
  %31 = load i32, ptr %18, align 4
  %32 = call ptr @__errno_location() #8
  store i32 %31, ptr %32, align 4
  call void (ptr, ...) @fatal_abort(ptr noundef @.str.1, ptr noundef @__func__.bb_g_state_pack) #9
  unreachable

33:                                               ; preds = %26
  call void @llvm.lifetime.end.p0(i64 4, ptr %18) #7
  br label %34

34:                                               ; preds = %33
  br label %35

35:                                               ; preds = %34
  store i32 0, ptr %11, align 4
  br label %36

36:                                               ; preds = %72, %35
  %37 = load i32, ptr %11, align 4
  %38 = load i32, ptr @g_context_cnt, align 4
  %39 = icmp slt i32 %37, %38
  br i1 %39, label %40, label %75

40:                                               ; preds = %36
  %41 = load ptr, ptr %5, align 8
  %42 = getelementptr inbounds nuw %struct.buf_t, ptr %41, i32 0, i32 3
  %43 = load i32, ptr %42, align 4
  store i32 %43, ptr %16, align 4
  %44 = load ptr, ptr @ops, align 8
  %45 = load i32, ptr %11, align 4
  %46 = sext i32 %45 to i64
  %47 = getelementptr inbounds %struct.slurm_bb_ops, ptr %44, i64 %46
  %48 = getelementptr inbounds nuw %struct.slurm_bb_ops, ptr %47, i32 0, i32 4
  %49 = load ptr, ptr %48, align 8
  %50 = load i32, ptr %4, align 4
  %51 = load ptr, ptr %5, align 8
  %52 = load i16, ptr %6, align 2
  %53 = call i32 %49(i32 noundef %50, ptr noundef %51, i16 noundef zeroext %52)
  store i32 %53, ptr %13, align 4
  %54 = load i32, ptr %16, align 4
  %55 = load ptr, ptr %5, align 8
  %56 = getelementptr inbounds nuw %struct.buf_t, ptr %55, i32 0, i32 3
  %57 = load i32, ptr %56, align 4
  %58 = icmp ne i32 %54, %57
  br i1 %58, label %59, label %62

59:                                               ; preds = %40
  %60 = load i32, ptr %14, align 4
  %61 = add i32 %60, 1
  store i32 %61, ptr %14, align 4
  br label %62

62:                                               ; preds = %59, %40
  %63 = load i32, ptr %12, align 4
  %64 = load i32, ptr %13, align 4
  %65 = icmp sgt i32 %63, %64
  br i1 %65, label %66, label %68

66:                                               ; preds = %62
  %67 = load i32, ptr %12, align 4
  br label %70

68:                                               ; preds = %62
  %69 = load i32, ptr %13, align 4
  br label %70

70:                                               ; preds = %68, %66
  %71 = phi i32 [ %67, %66 ], [ %69, %68 ]
  store i32 %71, ptr %12, align 4
  br label %72

72:                                               ; preds = %70
  %73 = load i32, ptr %11, align 4
  %74 = add nsw i32 %73, 1
  store i32 %74, ptr %11, align 4
  br label %36, !llvm.loop !16

75:                                               ; preds = %36
  br label %76

76:                                               ; preds = %75
  call void @llvm.lifetime.start.p0(i64 4, ptr %19) #7
  %77 = call i32 @pthread_mutex_unlock(ptr noundef @g_context_lock) #7
  store i32 %77, ptr %19, align 4
  %78 = load i32, ptr %19, align 4
  %79 = icmp ne i32 %78, 0
  br i1 %79, label %80, label %83

80:                                               ; preds = %76
  %81 = load i32, ptr %19, align 4
  %82 = call ptr @__errno_location() #8
  store i32 %81, ptr %82, align 4
  call void (ptr, ...) @fatal_abort(ptr noundef @.str.8, ptr noundef @__func__.bb_g_state_pack) #9
  unreachable

83:                                               ; preds = %76
  call void @llvm.lifetime.end.p0(i64 4, ptr %19) #7
  br label %84

84:                                               ; preds = %83
  br label %85

85:                                               ; preds = %84
  %86 = load i32, ptr %14, align 4
  %87 = icmp ne i32 %86, 0
  br i1 %87, label %88, label %100

88:                                               ; preds = %85
  %89 = load ptr, ptr %5, align 8
  %90 = getelementptr inbounds nuw %struct.buf_t, ptr %89, i32 0, i32 3
  %91 = load i32, ptr %90, align 4
  store i32 %91, ptr %15, align 4
  %92 = load i32, ptr %17, align 4
  %93 = load ptr, ptr %5, align 8
  %94 = getelementptr inbounds nuw %struct.buf_t, ptr %93, i32 0, i32 3
  store i32 %92, ptr %94, align 4
  %95 = load i32, ptr %14, align 4
  %96 = load ptr, ptr %5, align 8
  call void @pack32(i32 noundef %95, ptr noundef %96)
  %97 = load i32, ptr %15, align 4
  %98 = load ptr, ptr %5, align 8
  %99 = getelementptr inbounds nuw %struct.buf_t, ptr %98, i32 0, i32 3
  store i32 %97, ptr %99, align 4
  br label %100

100:                                              ; preds = %88, %85
  br label %101

101:                                              ; preds = %100
  %102 = call i32 @gettimeofday(ptr noundef %8, ptr noundef null) #7
  %103 = getelementptr inbounds [20 x i8], ptr %9, i64 0, i64 0
  call void @slurm_diff_tv_str(ptr noundef %7, ptr noundef %8, ptr noundef %103, i32 noundef 20, ptr noundef @__func__.bb_g_state_pack, i64 noundef 0, ptr noundef %10)
  br label %104

104:                                              ; preds = %101
  br label %105

105:                                              ; preds = %104
  %106 = load i32, ptr %12, align 4
  call void @llvm.lifetime.end.p0(i64 4, ptr %17) #7
  call void @llvm.lifetime.end.p0(i64 4, ptr %16) #7
  call void @llvm.lifetime.end.p0(i64 4, ptr %15) #7
  call void @llvm.lifetime.end.p0(i64 4, ptr %14) #7
  call void @llvm.lifetime.end.p0(i64 4, ptr %13) #7
  call void @llvm.lifetime.end.p0(i64 4, ptr %12) #7
  call void @llvm.lifetime.end.p0(i64 4, ptr %11) #7
  call void @llvm.lifetime.end.p0(i64 8, ptr %10) #7
  call void @llvm.lifetime.end.p0(i64 20, ptr %9) #7
  call void @llvm.lifetime.end.p0(i64 16, ptr %8) #7
  call void @llvm.lifetime.end.p0(i64 16, ptr %7) #7
  ret i32 %106
}