; Function Attrs: nounwind uwtable
define dso_local range(i32 0, -2147483648) i32 @bb_g_state_pack(i32 noundef %0, ptr noundef %1, i16 noundef zeroext %2) local_unnamed_addr #0 {
  %4 = alloca %struct.timeval, align 8
  %5 = alloca %struct.timeval, align 8
  %6 = alloca [20 x i8], align 16
  %7 = alloca i64, align 8
  call void @llvm.lifetime.start.p0(i64 16, ptr nonnull %4) #11
  call void @llvm.lifetime.start.p0(i64 16, ptr nonnull %5) #11
  call void @llvm.lifetime.start.p0(i64 20, ptr nonnull %6) #11
  call void @llvm.memset.p0.i64(ptr noundef nonnull align 16 dereferenceable(20) %6, i8 0, i64 20, i1 false)
  call void @llvm.lifetime.start.p0(i64 8, ptr nonnull %7) #11
  %8 = call i32 @gettimeofday(ptr noundef nonnull %4, ptr noundef null) #11
  %9 = getelementptr inbounds nuw i8, ptr %1, i64 20
  %10 = load i32, ptr %9, align 4
  tail call void @pack32(i32 noundef 0, ptr noundef %1) #11
  %11 = tail call i32 @pthread_mutex_lock(ptr noundef nonnull @g_context_lock) #11
  %.not = icmp eq i32 %11, 0
  br i1 %.not, label %.preheader, label %14

.preheader:                                       ; preds = %3
  %12 = load i32, ptr @g_context_cnt, align 4
  %13 = icmp sgt i32 %12, 0
  br i1 %13, label %.lr.ph.preheader, label %._crit_edge.thread

.lr.ph.preheader:                                 ; preds = %.preheader
  %.pre = load i32, ptr %9, align 4
  br label %.lr.ph

14:                                               ; preds = %3
  %15 = tail call ptr @__errno_location() #12
  store i32 %11, ptr %15, align 4
  tail call void (ptr, ...) @fatal_abort(ptr noundef nonnull @.str.1, ptr noundef nonnull @__func__.bb_g_state_pack) #13
  unreachable

.lr.ph:                                           ; preds = %.lr.ph.preheader, %.lr.ph
  %16 = phi i32 [ %.pre, %.lr.ph.preheader ], [ %21, %.lr.ph ]
  %indvars.iv = phi i64 [ 0, %.lr.ph.preheader ], [ %indvars.iv.next, %.lr.ph ]
  %.02937 = phi i32 [ 0, %.lr.ph.preheader ], [ %23, %.lr.ph ]
  %.03036 = phi i32 [ 0, %.lr.ph.preheader ], [ %spec.select, %.lr.ph ]
  %17 = load ptr, ptr @ops, align 8
  %18 = getelementptr inbounds nuw %struct.slurm_bb_ops, ptr %17, i64 %indvars.iv, i32 4
  %19 = load ptr, ptr %18, align 8
  %20 = tail call i32 %19(i32 noundef %0, ptr noundef nonnull %1, i16 noundef zeroext %2) #11
  %21 = load i32, ptr %9, align 4
  %.not35 = icmp ne i32 %16, %21
  %22 = zext i1 %.not35 to i32
  %spec.select = add i32 %.03036, %22
  %23 = tail call i32 @llvm.smax.i32(i32 %.02937, i32 %20)
  %indvars.iv.next = add nuw nsw i64 %indvars.iv, 1
  %24 = load i32, ptr @g_context_cnt, align 4
  %25 = sext i32 %24 to i64
  %26 = icmp slt i64 %indvars.iv.next, %25
  br i1 %26, label %.lr.ph, label %._crit_edge, !llvm.loop !14

._crit_edge:                                      ; preds = %.lr.ph
  %27 = tail call i32 @pthread_mutex_unlock(ptr noundef nonnull @g_context_lock) #11
  %.not33 = icmp eq i32 %27, 0
  br i1 %.not33, label %32, label %29

._crit_edge.thread:                               ; preds = %.preheader
  %28 = tail call i32 @pthread_mutex_unlock(ptr noundef nonnull @g_context_lock) #11
  %.not3343 = icmp eq i32 %28, 0
  br i1 %.not3343, label %.thread, label %29

29:                                               ; preds = %._crit_edge.thread, %._crit_edge
  %30 = phi i32 [ %28, %._crit_edge.thread ], [ %27, %._crit_edge ]
  %31 = tail call ptr @__errno_location() #12
  store i32 %30, ptr %31, align 4
  tail call void (ptr, ...) @fatal_abort(ptr noundef nonnull @.str.8, ptr noundef nonnull @__func__.bb_g_state_pack) #13
  unreachable

32:                                               ; preds = %._crit_edge
  %.not34 = icmp eq i32 %spec.select, 0
  br i1 %.not34, label %.thread, label %33

33:                                               ; preds = %32
  %34 = load i32, ptr %9, align 4
  store i32 %10, ptr %9, align 4
  tail call void @pack32(i32 noundef %spec.select, ptr noundef nonnull %1) #11
  store i32 %34, ptr %9, align 4
  br label %.thread

.thread:                                          ; preds = %._crit_edge.thread, %32, %33
  %.029.lcssa4549 = phi i32 [ %23, %32 ], [ %23, %33 ], [ 0, %._crit_edge.thread ]
  %35 = call i32 @gettimeofday(ptr noundef nonnull %5, ptr noundef null) #11
  call void @slurm_diff_tv_str(ptr noundef nonnull %4, ptr noundef nonnull %5, ptr noundef nonnull %6, i32 noundef 20, ptr noundef nonnull @__func__.bb_g_state_pack, i64 noundef 0, ptr noundef nonnull %7) #11
  call void @llvm.lifetime.end.p0(i64 8, ptr nonnull %7) #11
  call void @llvm.lifetime.end.p0(i64 20, ptr nonnull %6) #11
  call void @llvm.lifetime.end.p0(i64 16, ptr nonnull %5) #11
  call void @llvm.lifetime.end.p0(i64 16, ptr nonnull %4) #11
  ret i32 %.029.lcssa4549
}